target datalayout = "e-m:e-p270:32:32-p271:32:32-p272:64:64-i64:64-i128:128-f80:128-n8:16:32:64-S128"
target triple = "x86_64-pc-linux-gnu"

%struct.PsqlScanStateData = type { ptr, ptr, ptr, ptr, ptr, ptr, i32, i8, i8, ptr, ptr, i32, i32, i32, i32, ptr, i32, [4 x i8], i32, ptr, ptr }
%struct.StackElem = type { ptr, ptr, ptr, ptr, ptr }

; Function Attrs: nounwind uwtable
define dso_local void @psqlscan_push_new_buffer(ptr noundef %0, ptr noundef %1, ptr noundef %2) #0 {
  %4 = alloca ptr, align 8
  %5 = alloca ptr, align 8
  %6 = alloca ptr, align 8
  %7 = alloca ptr, align 8
  store ptr %0, ptr %4, align 8
  store ptr %1, ptr %5, align 8
  store ptr %2, ptr %6, align 8
  call void @llvm.lifetime.start.p0(i64 8, ptr %7) #12
  %8 = call ptr @pg_malloc(i64 noundef 40)
  store ptr %8, ptr %7, align 8
  %9 = load ptr, ptr %6, align 8
  %10 = icmp ne ptr %9, null
  br i1 %10, label %11, label %14

11:                                               ; preds = %3
  %12 = load ptr, ptr %6, align 8
  %13 = call ptr @pg_strdup(ptr noundef %12)
  br label %15

14:                                               ; preds = %3
  br label %15

15:                                               ; preds = %14, %11
  %16 = phi ptr [ %13, %11 ], [ null, %14 ]
  %17 = load ptr, ptr %7, align 8
  %18 = getelementptr inbounds nuw %struct.StackElem, ptr %17, i32 0, i32 3
  store ptr %16, ptr %18, align 8
  %19 = load ptr, ptr %4, align 8
  %20 = load ptr, ptr %5, align 8
  %21 = load ptr, ptr %5, align 8
  %22 = call i64 @strlen(ptr noundef %21) #13
  %23 = trunc i64 %22 to i32
  %24 = load ptr, ptr %7, align 8
  %25 = getelementptr inbounds nuw %struct.StackElem, ptr %24, i32 0, i32 1
  %26 = call ptr @psqlscan_prepare_buffer(ptr noundef %19, ptr noundef %20, i32 noundef %23, ptr noundef %25)
  %27 = load ptr, ptr %7, align 8
  %28 = getelementptr inbounds nuw %struct.StackElem, ptr %27, i32 0, i32 0
  store ptr %26, ptr %28, align 8
  %29 = load ptr, ptr %7, align 8
  %30 = getelementptr inbounds nuw %struct.StackElem, ptr %29, i32 0, i32 1
  %31 = load ptr, ptr %30, align 8
  %32 = load ptr, ptr %4, align 8
  %33 = getelementptr inbounds nuw %struct.PsqlScanStateData, ptr %32, i32 0, i32 9
  store ptr %31, ptr %33, align 8
  %34 = load ptr, ptr %4, align 8
  %35 = getelementptr inbounds nuw %struct.PsqlScanStateData, ptr %34, i32 0, i32 7
  %36 = load i8, ptr %35, align 4, !range !6, !noundef !7
  %37 = trunc i8 %36 to i1
  br i1 %37, label %38, label %46

38:                                               ; preds = %15
  %39 = load ptr, ptr %7, align 8
  %40 = getelementptr inbounds nuw %struct.StackElem, ptr %39, i32 0, i32 2
  store ptr null, ptr %40, align 8
  %41 = load ptr, ptr %7, align 8
  %42 = getelementptr inbounds nuw %struct.StackElem, ptr %41, i32 0, i32 1
  %43 = load ptr, ptr %42, align 8
  %44 = load ptr, ptr %4, align 8
  %45 = getelementptr inbounds nuw %struct.PsqlScanStateData, ptr %44, i32 0, i32 10
  store ptr %43, ptr %45, align 8
  br label %56

46:                                               ; preds = %15
  %47 = load ptr, ptr %5, align 8
  %48 = call ptr @pg_strdup(ptr noundef %47)
  %49 = load ptr, ptr %7, align 8
  %50 = getelementptr inbounds nuw %struct.StackElem, ptr %49, i32 0, i32 2
  store ptr %48, ptr %50, align 8
  %51 = load ptr, ptr %7, align 8
  %52 = getelementptr inbounds nuw %struct.StackElem, ptr %51, i32 0, i32 2
  %53 = load ptr, ptr %52, align 8
  %54 = load ptr, ptr %4, align 8
  %55 = getelementptr inbounds nuw %struct.PsqlScanStateData, ptr %54, i32 0, i32 10
  store ptr %53, ptr %55, align 8
  br label %56

56:                                               ; preds = %46, %38
  %57 = load ptr, ptr %4, align 8
  %58 = getelementptr inbounds nuw %struct.PsqlScanStateData, ptr %57, i32 0, i32 2
  %59 = load ptr, ptr %58, align 8
  %60 = load ptr, ptr %7, align 8
  %61 = getelementptr inbounds nuw %struct.StackElem, ptr %60, i32 0, i32 4
  store ptr %59, ptr %61, align 8
  %62 = load ptr, ptr %7, align 8
  %63 = load ptr, ptr %4, align 8
  %64 = getelementptr inbounds nuw %struct.PsqlScanStateData, ptr %63, i32 0, i32 2
  store ptr %62, ptr %64, align 8
  call void @llvm.lifetime.end.p0(i64 8, ptr %7) #12
  ret void
}