; Function Attrs: nounwind uwtable
define dso_local void @psqlscan_push_new_buffer(ptr noundef captures(none) %0, ptr noundef %1, ptr noundef %2) local_unnamed_addr #0 {
  %4 = tail call ptr @pg_malloc(i64 noundef 40) #27
  %.not = icmp eq ptr %2, null
  br i1 %.not, label %7, label %5

5:                                                ; preds = %3
  %6 = tail call ptr @pg_strdup(ptr noundef nonnull %2) #27
  br label %7

7:                                                ; preds = %3, %5
  %8 = phi ptr [ %6, %5 ], [ null, %3 ]
  %9 = getelementptr inbounds nuw i8, ptr %4, i64 24
  store ptr %8, ptr %9, align 8
  %10 = tail call i64 @strlen(ptr noundef nonnull dereferenceable(1) %1) #28
  %11 = trunc i64 %10 to i32
  %12 = getelementptr inbounds nuw i8, ptr %4, i64 8
  %13 = tail call ptr @psqlscan_prepare_buffer(ptr noundef %0, ptr noundef nonnull %1, i32 noundef %11, ptr noundef nonnull %12)
  store ptr %13, ptr %4, align 8
  %14 = load ptr, ptr %12, align 8
  %15 = getelementptr inbounds nuw i8, ptr %0, i64 56
  store ptr %14, ptr %15, align 8
  %16 = getelementptr inbounds nuw i8, ptr %0, i64 52
  %17 = load i8, ptr %16, align 4, !range !6, !noundef !7
  %18 = trunc nuw i8 %17 to i1
  br i1 %18, label %21, label %19

19:                                               ; preds = %7
  %20 = tail call ptr @pg_strdup(ptr noundef nonnull %1) #27
  br label %21

21:                                               ; preds = %7, %19
  %.sink22 = phi ptr [ %20, %19 ], [ null, %7 ]
  %.sink = phi ptr [ %20, %19 ], [ %14, %7 ]
  %22 = getelementptr inbounds nuw i8, ptr %4, i64 16
  store ptr %.sink22, ptr %22, align 8
  %23 = getelementptr inbounds nuw i8, ptr %0, i64 64
  store ptr %.sink, ptr %23, align 8
  %24 = getelementptr inbounds nuw i8, ptr %0, i64 16
  %25 = load ptr, ptr %24, align 8
  %26 = getelementptr inbounds nuw i8, ptr %4, i64 32
  store ptr %25, ptr %26, align 8
  store ptr %4, ptr %24, align 8
  ret void
}